target datalayout = "e-m:e-p270:32:32-p271:32:32-p272:64:64-i64:64-i128:128-f80:128-n8:16:32:64-S128"
target triple = "x86_64-pc-linux-gnu"

%struct.expert_field = type { i32, i32 }
%struct._asn1_ctx_t = type { i32, i32, i8, ptr, ptr, ptr, ptr, ptr, %struct.anon, %struct.anon.2, %struct.anon.3, ptr }
%struct.anon = type { i32, i8, i8, i8, ptr, ptr, i32, i32, ptr, ptr, ptr, %union.anon }
%union.anon = type { %struct.anon.0 }
%struct.anon.0 = type { ptr }
%struct.anon.2 = type { ptr, ptr, ptr }
%struct.anon.3 = type { i32, i8, ptr, i32, i32, ptr, ptr, ptr, %union.anon.4 }
%union.anon.4 = type { %struct.anon.5 }
%struct.anon.5 = type { ptr }
%struct.SESSION_DATA_STRUCTURE = type { i8, i8, i8, i32, i8 }
%struct._packet_info = type { ptr, ptr, i32, i32, %struct.nstime_t, %struct.nstime_t, %struct.nstime_t, i8, ptr, ptr, ptr, ptr, %struct._address, %struct._address, %struct._address, %struct._address, %struct._address, %struct._address, i32, ptr, i8, [3 x i8], %struct.anon.7, i32, i32, i32, i32, ptr, i8, ptr, ptr, i16, i16, i32, i32, i16, i32, i32, ptr, ptr, ptr, i8, i8, i16, i16, i16, i32, i16, i16, ptr, ptr, ptr, ptr, ptr, i32, i32 }
%struct.nstime_t = type { i64, i32 }
%struct._address = type { i32, i32, ptr, ptr }
%struct.anon.7 = type { i8, [3 x i8] }

@hf_acse_user_data = internal global i32 0, align 4
@ett_acse = internal global i32 0, align 4
@ett_acse_ACSE_apdu = internal global i32 0, align 4
@ei_acse_dissector_not_available = internal global %struct.expert_field zeroinitializer, align 4
@ei_acse_malformed = internal global %struct.expert_field zeroinitializer, align 4
@ei_acse_invalid_oid = internal global %struct.expert_field zeroinitializer, align 4
@.str.258 = private unnamed_addr constant [5 x i8] c"ACSE\00", align 1
@proto_acse = hidden global i32 0, align 4
@proto_clacse = hidden global i32 0, align 4
@.str.265 = private unnamed_addr constant [10 x i8] c"2.2.1.0.1\00", align 1
@indir_ref = internal global i32 0, align 4
@.str.318 = private unnamed_addr constant [43 x i8] c"Wrong spdu type %x from session dissector.\00", align 1
@.str.319 = private unnamed_addr constant [16 x i8] c"Invalid OID: %s\00", align 1
@.str.320 = private unnamed_addr constant [8 x i8] c"CL-ACSE\00", align 1

; Function Attrs: null_pointer_is_valid sspstrong uwtable
define internal i32 @dissect_acse_ACSE_apdu(i1 noundef zeroext %0, ptr noundef %1, i32 noundef %2, ptr noundef %3, ptr noundef %4, i32 noundef %5) #0 {
  %7 = alloca i8, align 1
  %8 = alloca ptr, align 8
  %9 = alloca i32, align 4
  %10 = alloca ptr, align 8
  %11 = alloca ptr, align 8
  %12 = alloca i32, align 4
  %13 = zext i1 %0 to i8
  store i8 %13, ptr %7, align 1
  store ptr %1, ptr %8, align 8
  store i32 %2, ptr %9, align 4
  store ptr %3, ptr %10, align 8
  store ptr %4, ptr %11, align 8
  store i32 %5, ptr %12, align 4
  %14 = load ptr, ptr %10, align 8
  %15 = load ptr, ptr %11, align 8
  %16 = load ptr, ptr %8, align 8
  %17 = load i32, ptr %9, align 4
  %18 = load i32, ptr %12, align 4
  %19 = load i32, ptr @ett_acse_ACSE_apdu, align 4
  %20 = call i32 @dissect_ber_choice(ptr noundef %14, ptr noundef %15, ptr noundef %16, i32 noundef %17, ptr noundef @ACSE_apdu_choice, i32 noundef %18, i32 noundef %19, ptr noundef null)
  store i32 %20, ptr %9, align 4
  %21 = load i32, ptr %9, align 4
  ret i32 %21
}

; Function Attrs: null_pointer_is_valid sspstrong uwtable
define internal i32 @dissect_acse(ptr noundef %0, ptr noundef %1, ptr noundef %2, ptr noundef %3) #0 {
  %5 = alloca i32, align 4
  %6 = alloca ptr, align 8
  %7 = alloca ptr, align 8
  %8 = alloca ptr, align 8
  %9 = alloca ptr, align 8
  %10 = alloca i32, align 4
  %11 = alloca ptr, align 8
  %12 = alloca ptr, align 8
  %13 = alloca ptr, align 8
  %14 = alloca ptr, align 8
  %15 = alloca %struct._asn1_ctx_t, align 8
  %16 = alloca i32, align 4
  %17 = alloca i32, align 4
  store ptr %0, ptr %6, align 8
  store ptr %1, ptr %7, align 8
  store ptr %2, ptr %8, align 8
  store ptr %3, ptr %9, align 8
  call void @llvm.lifetime.start.p0(i64 4, ptr %10) #6
  store i32 0, ptr %10, align 4
  call void @llvm.lifetime.start.p0(i64 8, ptr %11) #6
  call void @llvm.lifetime.start.p0(i64 8, ptr %12) #6
  call void @llvm.lifetime.start.p0(i64 8, ptr %13) #6
  call void @llvm.lifetime.start.p0(i64 8, ptr %14) #6
  call void @llvm.lifetime.start.p0(i64 208, ptr %15) #6
  %18 = load ptr, ptr %7, align 8
  call void @asn1_ctx_init(ptr noundef %15, i32 noundef 0, i1 noundef zeroext true, ptr noundef %18)
  %19 = load ptr, ptr %9, align 8
  %20 = icmp eq ptr %19, null
  br i1 %20, label %21, label %22

21:                                               ; preds = %4
  store i32 0, ptr %5, align 4
  store i32 1, ptr %16, align 4
  br label %155

22:                                               ; preds = %4
  %23 = load ptr, ptr %6, align 8
  %24 = call zeroext i1 @tvb_bytes_exist(ptr noundef %23, i32 noundef 0, i32 noundef 2)
  br i1 %24, label %34, label %25

25:                                               ; preds = %22
  %26 = load ptr, ptr %8, align 8
  %27 = load i32, ptr @hf_acse_user_data, align 4
  %28 = load ptr, ptr %6, align 8
  %29 = load i32, ptr %10, align 4
  %30 = load ptr, ptr %6, align 8
  %31 = load i32, ptr %10, align 4
  %32 = call i32 @tvb_reported_length_remaining(ptr noundef %30, i32 noundef %31)
  %33 = call ptr @proto_tree_add_item(ptr noundef %26, i32 noundef %27, ptr noundef %28, i32 noundef %29, i32 noundef %32, i32 noundef 0)
  store i32 0, ptr %5, align 4
  store i32 1, ptr %16, align 4
  br label %155

34:                                               ; preds = %22
  %35 = load ptr, ptr %9, align 8
  store ptr %35, ptr %14, align 8
  %36 = load ptr, ptr %14, align 8
  %37 = getelementptr inbounds nuw %struct.SESSION_DATA_STRUCTURE, ptr %36, i32 0, i32 0
  %38 = load i8, ptr %37, align 4
  %39 = zext i8 %38 to i32
  %40 = icmp eq i32 %39, 0
  br i1 %40, label %41, label %50

41:                                               ; preds = %34
  %42 = load ptr, ptr %8, align 8
  %43 = icmp ne ptr %42, null
  br i1 %43, label %44, label %49

44:                                               ; preds = %41
  %45 = load ptr, ptr %14, align 8
  %46 = getelementptr inbounds nuw %struct.SESSION_DATA_STRUCTURE, ptr %45, i32 0, i32 0
  %47 = load i8, ptr %46, align 4
  %48 = zext i8 %47 to i32
  call void (ptr, ...) @proto_report_dissector_bug(ptr noundef @.str.318, i32 noundef %48) #7
  unreachable

49:                                               ; preds = %41
  br label %50

50:                                               ; preds = %49, %34
  %51 = load ptr, ptr %14, align 8
  %52 = getelementptr inbounds nuw %struct._asn1_ctx_t, ptr %15, i32 0, i32 7
  store ptr %51, ptr %52, align 8
  %53 = load ptr, ptr %8, align 8
  %54 = getelementptr inbounds nuw %struct._asn1_ctx_t, ptr %15, i32 0, i32 9
  %55 = getelementptr inbounds nuw %struct.anon.2, ptr %54, i32 0, i32 1
  store ptr %53, ptr %55, align 8
  %56 = load ptr, ptr %14, align 8
  %57 = getelementptr inbounds nuw %struct.SESSION_DATA_STRUCTURE, ptr %56, i32 0, i32 0
  %58 = load i8, ptr %57, align 4
  %59 = zext i8 %58 to i32
  switch i32 %59, label %92 [
    i32 13, label %60
    i32 14, label %60
    i32 12, label %60
    i32 10, label %60
    i32 9, label %60
    i32 25, label %60
    i32 64, label %60
    i32 1, label %61
  ]

60:                                               ; preds = %50, %50, %50, %50, %50, %50, %50
  br label %93

61:                                               ; preds = %50
  %62 = load ptr, ptr %7, align 8
  %63 = load i32, ptr @indir_ref, align 4
  %64 = call ptr @find_oid_by_pres_ctx_id(ptr noundef %62, i32 noundef %63)
  store ptr %64, ptr %13, align 8
  %65 = load ptr, ptr %13, align 8
  %66 = icmp ne ptr %65, null
  br i1 %66, label %67, label %85

67:                                               ; preds = %61
  %68 = load ptr, ptr %13, align 8
  %69 = call i32 @strcmp(ptr noundef %68, ptr noundef @.str.265) #8
  %70 = icmp eq i32 %69, 0
  br i1 %70, label %71, label %77

71:                                               ; preds = %67
  %72 = load ptr, ptr %8, align 8
  %73 = load ptr, ptr %7, align 8
  %74 = load ptr, ptr %6, align 8
  %75 = load i32, ptr %10, align 4
  %76 = call ptr (ptr, ptr, ptr, ptr, i32, i32, ptr, ...) @proto_tree_add_expert_format(ptr noundef %72, ptr noundef %73, ptr noundef @ei_acse_invalid_oid, ptr noundef %74, i32 noundef %75, i32 noundef -1, ptr noundef @.str.319, ptr noundef @.str.265)
  br label %84

77:                                               ; preds = %67
  %78 = load ptr, ptr %13, align 8
  %79 = load ptr, ptr %6, align 8
  %80 = load i32, ptr %10, align 4
  %81 = load ptr, ptr %7, align 8
  %82 = load ptr, ptr %8, align 8
  %83 = call i32 @call_ber_oid_callback(ptr noundef %78, ptr noundef %79, i32 noundef %80, ptr noundef %81, ptr noundef %82, ptr noundef null)
  br label %84

84:                                               ; preds = %77, %71
  br label %91

85:                                               ; preds = %61
  %86 = load ptr, ptr %8, align 8
  %87 = load ptr, ptr %7, align 8
  %88 = load ptr, ptr %6, align 8
  %89 = load i32, ptr %10, align 4
  %90 = call ptr @proto_tree_add_expert(ptr noundef %86, ptr noundef %87, ptr noundef @ei_acse_dissector_not_available, ptr noundef %88, i32 noundef %89, i32 noundef -1)
  br label %91

91:                                               ; preds = %85, %84
  store i32 0, ptr %5, align 4
  store i32 1, ptr %16, align 4
  br label %155

92:                                               ; preds = %50
  store i32 0, ptr %5, align 4
  store i32 1, ptr %16, align 4
  br label %155

93:                                               ; preds = %60
  %94 = load ptr, ptr %14, align 8
  %95 = getelementptr inbounds nuw %struct.SESSION_DATA_STRUCTURE, ptr %94, i32 0, i32 0
  %96 = load i8, ptr %95, align 4
  %97 = zext i8 %96 to i32
  %98 = icmp eq i32 %97, 64
  br i1 %98, label %99, label %113

99:                                               ; preds = %93
  %100 = load ptr, ptr %8, align 8
  %101 = load i32, ptr @proto_clacse, align 4
  %102 = load ptr, ptr %6, align 8
  %103 = call ptr @proto_tree_add_item(ptr noundef %100, i32 noundef %101, ptr noundef %102, i32 noundef 0, i32 noundef -1, i32 noundef 0)
  store ptr %103, ptr %11, align 8
  %104 = load ptr, ptr %11, align 8
  %105 = load i32, ptr @ett_acse, align 4
  %106 = call ptr @proto_item_add_subtree(ptr noundef %104, i32 noundef %105)
  store ptr %106, ptr %12, align 8
  %107 = load ptr, ptr %7, align 8
  %108 = getelementptr inbounds nuw %struct._packet_info, ptr %107, i32 0, i32 1
  %109 = load ptr, ptr %108, align 8
  call void @col_set_str(ptr noundef %109, i32 noundef 35, ptr noundef @.str.320)
  %110 = load ptr, ptr %7, align 8
  %111 = getelementptr inbounds nuw %struct._packet_info, ptr %110, i32 0, i32 1
  %112 = load ptr, ptr %111, align 8
  call void @col_clear(ptr noundef %112, i32 noundef 25)
  br label %127

113:                                              ; preds = %93
  %114 = load ptr, ptr %8, align 8
  %115 = load i32, ptr @proto_acse, align 4
  %116 = load ptr, ptr %6, align 8
  %117 = call ptr @proto_tree_add_item(ptr noundef %114, i32 noundef %115, ptr noundef %116, i32 noundef 0, i32 noundef -1, i32 noundef 0)
  store ptr %117, ptr %11, align 8
  %118 = load ptr, ptr %11, align 8
  %119 = load i32, ptr @ett_acse, align 4
  %120 = call ptr @proto_item_add_subtree(ptr noundef %118, i32 noundef %119)
  store ptr %120, ptr %12, align 8
  %121 = load ptr, ptr %7, align 8
  %122 = getelementptr inbounds nuw %struct._packet_info, ptr %121, i32 0, i32 1
  %123 = load ptr, ptr %122, align 8
  call void @col_set_str(ptr noundef %123, i32 noundef 35, ptr noundef @.str.258)
  %124 = load ptr, ptr %7, align 8
  %125 = getelementptr inbounds nuw %struct._packet_info, ptr %124, i32 0, i32 1
  %126 = load ptr, ptr %125, align 8
  call void @col_clear(ptr noundef %126, i32 noundef 25)
  br label %127

127:                                              ; preds = %113, %99
  br label %128

128:                                              ; preds = %151, %127
  %129 = load ptr, ptr %6, align 8
  %130 = load i32, ptr %10, align 4
  %131 = call i32 @tvb_reported_length_remaining(ptr noundef %129, i32 noundef %130)
  %132 = icmp sgt i32 %131, 0
  br i1 %132, label %133, label %152

133:                                              ; preds = %128
  call void @llvm.lifetime.start.p0(i64 4, ptr %17) #6
  %134 = load i32, ptr %10, align 4
  store i32 %134, ptr %17, align 4
  %135 = load ptr, ptr %6, align 8
  %136 = load i32, ptr %10, align 4
  %137 = load ptr, ptr %12, align 8
  %138 = call i32 @dissect_acse_ACSE_apdu(i1 noundef zeroext false, ptr noundef %135, i32 noundef %136, ptr noundef %15, ptr noundef %137, i32 noundef -1)
  store i32 %138, ptr %10, align 4
  %139 = load i32, ptr %10, align 4
  %140 = load i32, ptr %17, align 4
  %141 = icmp eq i32 %139, %140
  br i1 %141, label %142, label %148

142:                                              ; preds = %133
  %143 = load ptr, ptr %12, align 8
  %144 = load ptr, ptr %7, align 8
  %145 = load ptr, ptr %6, align 8
  %146 = load i32, ptr %10, align 4
  %147 = call ptr @proto_tree_add_expert(ptr noundef %143, ptr noundef %144, ptr noundef @ei_acse_malformed, ptr noundef %145, i32 noundef %146, i32 noundef -1)
  store i32 4, ptr %16, align 4
  br label %149

148:                                              ; preds = %133
  store i32 0, ptr %16, align 4
  br label %149

149:                                              ; preds = %148, %142
  call void @llvm.lifetime.end.p0(i64 4, ptr %17) #6
  %150 = load i32, ptr %16, align 4
  switch i32 %150, label %157 [
    i32 0, label %151
    i32 4, label %152
  ]

151:                                              ; preds = %149
  br label %128, !llvm.loop !8

152:                                              ; preds = %149, %128
  %153 = load ptr, ptr %6, align 8
  %154 = call i32 @tvb_captured_length(ptr noundef %153)
  store i32 %154, ptr %5, align 4
  store i32 1, ptr %16, align 4
  br label %155

155:                                              ; preds = %152, %92, %91, %25, %21
  call void @llvm.lifetime.end.p0(i64 208, ptr %15) #6
  call void @llvm.lifetime.end.p0(i64 8, ptr %14) #6
  call void @llvm.lifetime.end.p0(i64 8, ptr %13) #6
  call void @llvm.lifetime.end.p0(i64 8, ptr %12) #6
  call void @llvm.lifetime.end.p0(i64 8, ptr %11) #6
  call void @llvm.lifetime.end.p0(i64 4, ptr %10) #6
  %156 = load i32, ptr %5, align 4
  ret i32 %156

157:                                              ; preds = %149
  unreachable
}