; Function Attrs: null_pointer_is_valid sspstrong uwtable
define internal i32 @dissect_acse(ptr noundef %0, ptr noundef %1, ptr noundef %2, ptr noundef %3) #0 {
  %5 = alloca %struct._asn1_ctx_t, align 8
  call void @llvm.lifetime.start.p0(i64 208, ptr nonnull %5) #6
  call void @asn1_ctx_init(ptr noundef nonnull %5, i32 noundef 0, i1 noundef zeroext true, ptr noundef %1)
  %6 = icmp eq ptr %3, null
  br i1 %6, label %51, label %7

7:                                                ; preds = %4
  %8 = call zeroext i1 @tvb_bytes_exist(ptr noundef %0, i32 noundef 0, i32 noundef 2)
  br i1 %8, label %13, label %9

9:                                                ; preds = %7
  %10 = load i32, ptr @hf_acse_user_data, align 4
  %11 = call i32 @tvb_reported_length_remaining(ptr noundef %0, i32 noundef 0)
  %12 = call ptr @proto_tree_add_item(ptr noundef %2, i32 noundef %10, ptr noundef %0, i32 noundef 0, i32 noundef %11, i32 noundef 0)
  br label %51

13:                                               ; preds = %7
  %14 = load i8, ptr %3, align 4
  %15 = icmp eq i8 %14, 0
  %16 = icmp ne ptr %2, null
  %or.cond = and i1 %16, %15
  br i1 %or.cond, label %17, label %18

17:                                               ; preds = %13
  call void (ptr, ...) @proto_report_dissector_bug(ptr noundef nonnull @.str.318, i32 noundef 0) #7
  unreachable

18:                                               ; preds = %13
  %19 = getelementptr inbounds nuw i8, ptr %5, i64 48
  store ptr %3, ptr %19, align 8
  %20 = getelementptr inbounds nuw i8, ptr %5, i64 128
  store ptr %2, ptr %20, align 8
  switch i8 %14, label %51 [
    i8 1, label %21
    i8 64, label %34
    i8 9, label %33
    i8 10, label %33
    i8 12, label %33
    i8 13, label %33
    i8 14, label %33
    i8 25, label %33
  ]

21:                                               ; preds = %18
  %22 = load i32, ptr @indir_ref, align 4
  %23 = call ptr @find_oid_by_pres_ctx_id(ptr noundef %1, i32 noundef %22)
  %.not = icmp eq ptr %23, null
  br i1 %.not, label %31, label %24

24:                                               ; preds = %21
  %25 = call i32 @strcmp(ptr noundef nonnull dereferenceable(1) %23, ptr noundef nonnull dereferenceable(10) @.str.265) #8
  %26 = icmp eq i32 %25, 0
  br i1 %26, label %27, label %29

27:                                               ; preds = %24
  %28 = call ptr (ptr, ptr, ptr, ptr, i32, i32, ptr, ...) @proto_tree_add_expert_format(ptr noundef %2, ptr noundef %1, ptr noundef nonnull @ei_acse_invalid_oid, ptr noundef %0, i32 noundef 0, i32 noundef -1, ptr noundef nonnull @.str.319, ptr noundef nonnull @.str.265)
  br label %51

29:                                               ; preds = %24
  %30 = call i32 @call_ber_oid_callback(ptr noundef nonnull %23, ptr noundef %0, i32 noundef 0, ptr noundef %1, ptr noundef %2, ptr noundef null)
  br label %51

31:                                               ; preds = %21
  %32 = call ptr @proto_tree_add_expert(ptr noundef %2, ptr noundef %1, ptr noundef nonnull @ei_acse_dissector_not_available, ptr noundef %0, i32 noundef 0, i32 noundef -1)
  br label %51

33:                                               ; preds = %18, %18, %18, %18, %18, %18
  br label %34

34:                                               ; preds = %18, %33
  %proto_acse.sink = phi ptr [ @proto_acse, %33 ], [ @proto_clacse, %18 ]
  %.str.258.sink = phi ptr [ @.str.258, %33 ], [ @.str.320, %18 ]
  %35 = load i32, ptr %proto_acse.sink, align 4
  %36 = call ptr @proto_tree_add_item(ptr noundef %2, i32 noundef %35, ptr noundef %0, i32 noundef 0, i32 noundef -1, i32 noundef 0)
  %37 = load i32, ptr @ett_acse, align 4
  %38 = call ptr @proto_item_add_subtree(ptr noundef %36, i32 noundef %37)
  %39 = getelementptr inbounds nuw i8, ptr %1, i64 8
  %40 = load ptr, ptr %39, align 8
  call void @col_set_str(ptr noundef %40, i32 noundef 35, ptr noundef nonnull %.str.258.sink)
  %41 = load ptr, ptr %39, align 8
  call void @col_clear(ptr noundef %41, i32 noundef 25)
  br label %42

42:                                               ; preds = %45, %34
  %.058 = phi i32 [ 0, %34 ], [ %47, %45 ]
  %43 = call i32 @tvb_reported_length_remaining(ptr noundef %0, i32 noundef %.058)
  %44 = icmp sgt i32 %43, 0
  br i1 %44, label %45, label %.loopexit

45:                                               ; preds = %42
  %46 = load i32, ptr @ett_acse_ACSE_apdu, align 4
  %47 = call i32 @dissect_ber_choice(ptr noundef nonnull %5, ptr noundef %38, ptr noundef %0, i32 noundef %.058, ptr noundef nonnull @ACSE_apdu_choice, i32 noundef -1, i32 noundef %46, ptr noundef null)
  %48 = icmp eq i32 %47, %.058
  br i1 %48, label %.thread, label %42

.thread:                                          ; preds = %45
  %49 = call ptr @proto_tree_add_expert(ptr noundef %38, ptr noundef %1, ptr noundef nonnull @ei_acse_malformed, ptr noundef %0, i32 noundef %.058, i32 noundef -1)
  br label %.loopexit

.loopexit:                                        ; preds = %42, %.thread
  %50 = call i32 @tvb_captured_length(ptr noundef %0)
  br label %51

51:                                               ; preds = %18, %31, %29, %27, %4, %.loopexit, %9
  %.0 = phi i32 [ %50, %.loopexit ], [ 0, %9 ], [ 0, %4 ], [ 0, %27 ], [ 0, %29 ], [ 0, %31 ], [ 0, %18 ]
  call void @llvm.lifetime.end.p0(i64 208, ptr nonnull %5) #6
  ret i32 %.0
}